; Function Attrs: null_pointer_is_valid sspstrong uwtable
define internal range(i32 -268435456, 268435456) i32 @dissect_E2nodeConfigurationUpdateFailure_PDU(ptr noundef %0, ptr noundef %1, ptr noundef %2, ptr readnone captures(none) %3) #2 {
  %5 = alloca %struct._asn1_ctx_t, align 8
  call void @llvm.lifetime.start.p0(i64 208, ptr nonnull %5) #12
  call void @asn1_ctx_init(ptr noundef nonnull %5, i32 noundef 1, i1 noundef zeroext true, ptr noundef %1)
  %6 = load i32, ptr @hf_e2ap_E2nodeConfigurationUpdateFailure_PDU, align 4
  %7 = call ptr @val_to_str_const(i32 noundef 6, ptr noundef nonnull @mtype_names, ptr noundef nonnull @.str.1887)
  %8 = getelementptr inbounds nuw i8, ptr %5, i64 16
  %9 = load ptr, ptr %8, align 8
  %10 = getelementptr inbounds nuw i8, ptr %9, i64 8
  %11 = load ptr, ptr %10, align 8
  call void @col_append_sep_str(ptr noundef %11, i32 noundef 25, ptr noundef null, ptr noundef %7)
  call void (ptr, ptr, ...) @proto_item_append_text(ptr noundef null, ptr noundef nonnull @.str.1899, ptr noundef %7)
  %12 = load ptr, ptr %8, align 8
  %13 = getelementptr inbounds nuw i8, ptr %12, i64 408
  %14 = load ptr, ptr %13, align 8
  %15 = load i32, ptr @proto_e2ap, align 4
  %16 = call ptr @p_get_proto_data(ptr noundef %14, ptr noundef %12, i32 noundef %15, i32 noundef 0)
  %.not.i.i.i = icmp eq ptr %16, null
  br i1 %.not.i.i.i, label %17, label %dissect_e2ap_E2nodeConfigurationUpdateFailure.exit

17:                                               ; preds = %4
  %18 = load ptr, ptr %13, align 8
  %19 = call noalias dereferenceable_or_null(48) ptr @wmem_alloc0(ptr noundef %18, i64 noundef 48) #10
  %20 = load ptr, ptr %13, align 8
  %21 = load i32, ptr @proto_e2ap, align 4
  call void @p_add_proto_data(ptr noundef %20, ptr noundef %12, i32 noundef %21, i32 noundef 0, ptr noundef %19)
  br label %dissect_e2ap_E2nodeConfigurationUpdateFailure.exit

dissect_e2ap_E2nodeConfigurationUpdateFailure.exit: ; preds = %4, %17
  %.0.i.i.i = phi ptr [ %16, %4 ], [ %19, %17 ]
  %22 = getelementptr inbounds nuw i8, ptr %.0.i.i.i, i64 40
  %23 = load ptr, ptr %22, align 8
  store i32 6, ptr %23, align 4
  %24 = load i32, ptr @ett_e2ap_E2nodeConfigurationUpdateFailure, align 4
  %25 = call i32 @dissect_per_sequence(ptr noundef %0, i32 noundef 0, ptr noundef nonnull %5, ptr noundef %2, i32 noundef %6, i32 noundef %24, ptr noundef nonnull @E2nodeConfigurationUpdateFailure_sequence)
  %26 = add i32 %25, 7
  %27 = ashr i32 %26, 3
  call void @llvm.lifetime.end.p0(i64 208, ptr nonnull %5) #12
  ret i32 %27
}